; Function Attrs: mustprogress nounwind uwtable
define dso_local void @_ZN4llvm25OffloadEntriesInfoManager26getTargetRegionEntryFnNameERNS_15SmallVectorImplIcEERKNS_21TargetRegionEntryInfoE(ptr noundef nonnull align 8 dereferenceable(136) %0, ptr noundef nonnull align 8 dereferenceable(24) %1, ptr noundef nonnull align 8 dereferenceable(48) %2) local_unnamed_addr #0 align 2 {
  %4 = tail call noundef i32 @_ZNK4llvm25OffloadEntriesInfoManager29getTargetRegionEntryInfoCountERKNS_21TargetRegionEntryInfoE(ptr noundef nonnull align 8 dereferenceable(136) %0, ptr noundef nonnull align 8 dereferenceable(48) %2)
  %5 = tail call noundef ptr @_ZNKSt7__cxx1112basic_stringIcSt11char_traitsIcESaIcEE4dataEv(ptr noundef nonnull align 8 dereferenceable(32) %2) #26
  %6 = tail call noundef i64 @_ZNKSt7__cxx1112basic_stringIcSt11char_traitsIcESaIcEE6lengthEv(ptr noundef nonnull align 8 dereferenceable(32) %2) #26
  %7 = getelementptr inbounds nuw i8, ptr %2, i64 32
  %8 = load i32, ptr %7, align 8
  %9 = getelementptr inbounds nuw i8, ptr %2, i64 36
  %10 = load i32, ptr %9, align 4
  %11 = getelementptr inbounds nuw i8, ptr %2, i64 40
  %12 = load i32, ptr %11, align 8
  tail call void @_ZN4llvm21TargetRegionEntryInfo26getTargetRegionEntryFnNameERNS_15SmallVectorImplIcEENS_9StringRefEjjjj(ptr noundef nonnull align 8 dereferenceable(24) %1, ptr %5, i64 %6, i32 noundef %8, i32 noundef %10, i32 noundef %12, i32 noundef %4)
  ret void
}